target datalayout = "e-m:e-p270:32:32-p271:32:32-p272:64:64-i64:64-i128:128-f80:128-n8:16:32:64-S128"
target triple = "x86_64-pc-linux-gnu"

%struct.grpc_slice = type { ptr, %"union.grpc_slice::grpc_slice_data" }
%"union.grpc_slice::grpc_slice_data" = type { %"struct.grpc_slice::grpc_slice_data::grpc_slice_refcounted", [8 x i8] }
%"struct.grpc_slice::grpc_slice_data::grpc_slice_refcounted" = type { i64, ptr }
%struct.grpc_slice_buffer = type { ptr, ptr, i64, i64, i64, [6 x %struct.grpc_slice] }

; Function Attrs: mustprogress noinline uwtable
define internal void @_ZL11do_embiggenP17grpc_slice_buffermm(ptr noundef %0, i64 noundef %1, i64 noundef %2) #16 {
  %4 = alloca ptr, align 8
  %5 = alloca i64, align 8
  %6 = alloca i64, align 8
  %7 = alloca i64, align 8
  store ptr %0, ptr %4, align 8, !tbaa !10
  store i64 %1, ptr %5, align 8, !tbaa !16
  store i64 %2, ptr %6, align 8, !tbaa !16
  %8 = load i64, ptr %6, align 8, !tbaa !16
  %9 = icmp ne i64 %8, 0
  br i1 %9, label %10, label %26

10:                                               ; preds = %3
  %11 = load ptr, ptr %4, align 8, !tbaa !10
  %12 = getelementptr inbounds nuw %struct.grpc_slice_buffer, ptr %11, i32 0, i32 0
  %13 = load ptr, ptr %12, align 8, !tbaa !54
  %14 = load ptr, ptr %4, align 8, !tbaa !10
  %15 = getelementptr inbounds nuw %struct.grpc_slice_buffer, ptr %14, i32 0, i32 1
  %16 = load ptr, ptr %15, align 8, !tbaa !18
  %17 = load ptr, ptr %4, align 8, !tbaa !10
  %18 = getelementptr inbounds nuw %struct.grpc_slice_buffer, ptr %17, i32 0, i32 2
  %19 = load i64, ptr %18, align 8, !tbaa !12
  %20 = mul i64 %19, 32
  call void @llvm.memmove.p0.p0.i64(ptr align 8 %13, ptr align 8 %16, i64 %20, i1 false)
  %21 = load ptr, ptr %4, align 8, !tbaa !10
  %22 = getelementptr inbounds nuw %struct.grpc_slice_buffer, ptr %21, i32 0, i32 0
  %23 = load ptr, ptr %22, align 8, !tbaa !54
  %24 = load ptr, ptr %4, align 8, !tbaa !10
  %25 = getelementptr inbounds nuw %struct.grpc_slice_buffer, ptr %24, i32 0, i32 1
  store ptr %23, ptr %25, align 8, !tbaa !18
  br label %73

26:                                               ; preds = %3
  call void @llvm.lifetime.start.p0(i64 8, ptr %7) #3
  %27 = load ptr, ptr %4, align 8, !tbaa !10
  %28 = getelementptr inbounds nuw %struct.grpc_slice_buffer, ptr %27, i32 0, i32 3
  %29 = load i64, ptr %28, align 8, !tbaa !53
  %30 = mul i64 3, %29
  %31 = udiv i64 %30, 2
  store i64 %31, ptr %7, align 8, !tbaa !16
  %32 = load i64, ptr %7, align 8, !tbaa !16
  %33 = load ptr, ptr %4, align 8, !tbaa !10
  %34 = getelementptr inbounds nuw %struct.grpc_slice_buffer, ptr %33, i32 0, i32 3
  store i64 %32, ptr %34, align 8, !tbaa !53
  %35 = load ptr, ptr %4, align 8, !tbaa !10
  %36 = getelementptr inbounds nuw %struct.grpc_slice_buffer, ptr %35, i32 0, i32 0
  %37 = load ptr, ptr %36, align 8, !tbaa !54
  %38 = load ptr, ptr %4, align 8, !tbaa !10
  %39 = getelementptr inbounds nuw %struct.grpc_slice_buffer, ptr %38, i32 0, i32 5
  %40 = getelementptr inbounds [6 x %struct.grpc_slice], ptr %39, i64 0, i64 0
  %41 = icmp eq ptr %37, %40
  br i1 %41, label %42, label %56

42:                                               ; preds = %26
  %43 = load i64, ptr %7, align 8, !tbaa !16
  %44 = mul i64 %43, 32
  %45 = call ptr @gpr_malloc(i64 noundef %44)
  %46 = load ptr, ptr %4, align 8, !tbaa !10
  %47 = getelementptr inbounds nuw %struct.grpc_slice_buffer, ptr %46, i32 0, i32 0
  store ptr %45, ptr %47, align 8, !tbaa !54
  %48 = load ptr, ptr %4, align 8, !tbaa !10
  %49 = getelementptr inbounds nuw %struct.grpc_slice_buffer, ptr %48, i32 0, i32 0
  %50 = load ptr, ptr %49, align 8, !tbaa !54
  %51 = load ptr, ptr %4, align 8, !tbaa !10
  %52 = getelementptr inbounds nuw %struct.grpc_slice_buffer, ptr %51, i32 0, i32 5
  %53 = getelementptr inbounds [6 x %struct.grpc_slice], ptr %52, i64 0, i64 0
  %54 = load i64, ptr %5, align 8, !tbaa !16
  %55 = mul i64 %54, 32
  call void @llvm.memcpy.p0.p0.i64(ptr align 8 %50, ptr align 8 %53, i64 %55, i1 false)
  br label %65

56:                                               ; preds = %26
  %57 = load ptr, ptr %4, align 8, !tbaa !10
  %58 = getelementptr inbounds nuw %struct.grpc_slice_buffer, ptr %57, i32 0, i32 0
  %59 = load ptr, ptr %58, align 8, !tbaa !54
  %60 = load i64, ptr %7, align 8, !tbaa !16
  %61 = mul i64 %60, 32
  %62 = call ptr @gpr_realloc(ptr noundef %59, i64 noundef %61)
  %63 = load ptr, ptr %4, align 8, !tbaa !10
  %64 = getelementptr inbounds nuw %struct.grpc_slice_buffer, ptr %63, i32 0, i32 0
  store ptr %62, ptr %64, align 8, !tbaa !54
  br label %65

65:                                               ; preds = %56, %42
  %66 = load ptr, ptr %4, align 8, !tbaa !10
  %67 = getelementptr inbounds nuw %struct.grpc_slice_buffer, ptr %66, i32 0, i32 0
  %68 = load ptr, ptr %67, align 8, !tbaa !54
  %69 = load i64, ptr %6, align 8, !tbaa !16
  %70 = getelementptr inbounds nuw %struct.grpc_slice, ptr %68, i64 %69
  %71 = load ptr, ptr %4, align 8, !tbaa !10
  %72 = getelementptr inbounds nuw %struct.grpc_slice_buffer, ptr %71, i32 0, i32 1
  store ptr %70, ptr %72, align 8, !tbaa !18
  call void @llvm.lifetime.end.p0(i64 8, ptr %7) #3
  br label %73

73:                                               ; preds = %65, %10
  ret void
}