; Function Attrs: mustprogress noinline uwtable
define internal fastcc void @_ZL11do_embiggenP17grpc_slice_buffermm(ptr noundef %0, i64 noundef %1, i64 noundef range(i64 -288230376151711744, 288230376151711744) %2) unnamed_addr #16 {
  %.not = icmp eq i64 %2, 0
  br i1 %.not, label %12, label %4

4:                                                ; preds = %3
  %5 = load ptr, ptr %0, align 8, !tbaa !25
  %6 = getelementptr inbounds nuw i8, ptr %0, i64 8
  %7 = load ptr, ptr %6, align 8, !tbaa !17
  %8 = getelementptr inbounds nuw i8, ptr %0, i64 16
  %9 = load i64, ptr %8, align 8, !tbaa !13
  %10 = shl i64 %9, 5
  tail call void @llvm.memmove.p0.p0.i64(ptr align 8 %5, ptr align 8 %7, i64 %10, i1 false)
  %11 = load ptr, ptr %0, align 8, !tbaa !25
  store ptr %11, ptr %6, align 8, !tbaa !17
  br label %29

12:                                               ; preds = %3
  %13 = getelementptr inbounds nuw i8, ptr %0, i64 24
  %14 = load i64, ptr %13, align 8, !tbaa !26
  %15 = mul i64 %14, 3
  %16 = lshr i64 %15, 1
  store i64 %16, ptr %13, align 8, !tbaa !26
  %17 = load ptr, ptr %0, align 8, !tbaa !25
  %18 = getelementptr inbounds nuw i8, ptr %0, i64 40
  %19 = icmp eq ptr %17, %18
  %20 = shl i64 %16, 5
  br i1 %19, label %21, label %24

21:                                               ; preds = %12
  %22 = tail call ptr @gpr_malloc(i64 noundef %20)
  store ptr %22, ptr %0, align 8, !tbaa !25
  %23 = shl i64 %1, 5
  tail call void @llvm.memcpy.p0.p0.i64(ptr align 8 %22, ptr nonnull align 8 %18, i64 %23, i1 false)
  %.pre = load ptr, ptr %0, align 8, !tbaa !25
  br label %26

24:                                               ; preds = %12
  %25 = tail call ptr @gpr_realloc(ptr noundef %17, i64 noundef %20)
  store ptr %25, ptr %0, align 8, !tbaa !25
  br label %26

26:                                               ; preds = %24, %21
  %27 = phi ptr [ %25, %24 ], [ %.pre, %21 ]
  %28 = getelementptr inbounds nuw i8, ptr %0, i64 8
  store ptr %27, ptr %28, align 8, !tbaa !17
  br label %29

29:                                               ; preds = %26, %4
  ret void
}